target datalayout = "e-m:e-p270:32:32-p271:32:32-p272:64:64-i64:64-i128:128-f80:128-n8:16:32:64-S128"
target triple = "x86_64-unknown-linux-gnu"

%"class.QuantLib::BinomialDistribution" = type { i64, double, double }
%"struct.std::_Vector_base" = type { %"struct.std::_Vector_base<double, std::allocator<double>>::_Vector_impl" }
%"struct.std::_Vector_base<double, std::allocator<double>>::_Vector_impl" = type { %"struct.std::_Vector_base<double, std::allocator<double>>::_Vector_impl_data" }
%"struct.std::_Vector_base<double, std::allocator<double>>::_Vector_impl_data" = type { ptr, ptr, ptr }

; Function Attrs: inlinehint mustprogress uwtable
define linkonce_odr noundef double @_ZNK8QuantLib20BinomialDistributionclEm(ptr noundef nonnull align 8 dereferenceable(24) %this, i64 noundef %k) #4 comdat align 2 {
entry:
  %retval = alloca double, align 8
  %this.addr = alloca ptr, align 8
  %k.addr = alloca i64, align 8
  store ptr %this, ptr %this.addr, align 8, !tbaa !7
  store i64 %k, ptr %k.addr, align 8, !tbaa !11
  %this1 = load ptr, ptr %this.addr, align 8
  %0 = load i64, ptr %k.addr, align 8, !tbaa !11
  %n_ = getelementptr inbounds nuw %"class.QuantLib::BinomialDistribution", ptr %this1, i32 0, i32 0
  %1 = load i64, ptr %n_, align 8, !tbaa !16
  %cmp = icmp ugt i64 %0, %1
  br i1 %cmp, label %if.then, label %if.end

if.then:                                          ; preds = %entry
  store double 0.000000e+00, ptr %retval, align 8
  br label %return

if.end:                                           ; preds = %entry
  %logP_ = getelementptr inbounds nuw %"class.QuantLib::BinomialDistribution", ptr %this1, i32 0, i32 1
  %2 = load double, ptr %logP_, align 8, !tbaa !18
  %cmp2 = fcmp oeq double %2, 0.000000e+00
  br i1 %cmp2, label %if.then3, label %if.else

if.then3:                                         ; preds = %if.end
  %3 = load i64, ptr %k.addr, align 8, !tbaa !11
  %n_4 = getelementptr inbounds nuw %"class.QuantLib::BinomialDistribution", ptr %this1, i32 0, i32 0
  %4 = load i64, ptr %n_4, align 8, !tbaa !16
  %cmp5 = icmp eq i64 %3, %4
  %cond = select i1 %cmp5, double 1.000000e+00, double 0.000000e+00
  store double %cond, ptr %retval, align 8
  br label %return

if.else:                                          ; preds = %if.end
  %logOneMinusP_ = getelementptr inbounds nuw %"class.QuantLib::BinomialDistribution", ptr %this1, i32 0, i32 2
  %5 = load double, ptr %logOneMinusP_, align 8, !tbaa !19
  %cmp6 = fcmp oeq double %5, 0.000000e+00
  br i1 %cmp6, label %if.then7, label %if.else10

if.then7:                                         ; preds = %if.else
  %6 = load i64, ptr %k.addr, align 8, !tbaa !11
  %cmp8 = icmp eq i64 %6, 0
  %cond9 = select i1 %cmp8, double 1.000000e+00, double 0.000000e+00
  store double %cond9, ptr %retval, align 8
  br label %return

if.else10:                                        ; preds = %if.else
  %n_11 = getelementptr inbounds nuw %"class.QuantLib::BinomialDistribution", ptr %this1, i32 0, i32 0
  %7 = load i64, ptr %n_11, align 8, !tbaa !16
  %8 = load i64, ptr %k.addr, align 8, !tbaa !11
  %call = call noundef double @_ZN8QuantLib21binomialCoefficientLnEmm(i64 noundef %7, i64 noundef %8)
  %9 = load i64, ptr %k.addr, align 8, !tbaa !11
  %conv = uitofp i64 %9 to double
  %logP_12 = getelementptr inbounds nuw %"class.QuantLib::BinomialDistribution", ptr %this1, i32 0, i32 1
  %10 = load double, ptr %logP_12, align 8, !tbaa !18
  %11 = call double @llvm.fmuladd.f64(double %conv, double %10, double %call)
  %n_13 = getelementptr inbounds nuw %"class.QuantLib::BinomialDistribution", ptr %this1, i32 0, i32 0
  %12 = load i64, ptr %n_13, align 8, !tbaa !16
  %13 = load i64, ptr %k.addr, align 8, !tbaa !11
  %sub = sub i64 %12, %13
  %conv14 = uitofp i64 %sub to double
  %logOneMinusP_15 = getelementptr inbounds nuw %"class.QuantLib::BinomialDistribution", ptr %this1, i32 0, i32 2
  %14 = load double, ptr %logOneMinusP_15, align 8, !tbaa !19
  %15 = call double @llvm.fmuladd.f64(double %conv14, double %14, double %11)
  %call16 = call double @exp(double noundef %15) #15, !tbaa !3
  store double %call16, ptr %retval, align 8
  br label %return

return:                                           ; preds = %if.else10, %if.then7, %if.then3, %if.then
  %16 = load double, ptr %retval, align 8
  ret double %16
}

; Function Attrs: mustprogress nounwind uwtable
define linkonce_odr noundef i64 @_ZNKSt6vectorIdSaIdEE4sizeEv(ptr noundef nonnull align 8 dereferenceable(24) %this) #3 comdat align 2 {
entry:
  %this.addr = alloca ptr, align 8
  store ptr %this, ptr %this.addr, align 8, !tbaa !7
  %this1 = load ptr, ptr %this.addr, align 8
  %_M_impl = getelementptr inbounds nuw %"struct.std::_Vector_base", ptr %this1, i32 0, i32 0
  %_M_finish = getelementptr inbounds nuw %"struct.std::_Vector_base<double, std::allocator<double>>::_Vector_impl_data", ptr %_M_impl, i32 0, i32 1
  %0 = load ptr, ptr %_M_finish, align 8, !tbaa !15
  %_M_impl2 = getelementptr inbounds nuw %"struct.std::_Vector_base", ptr %this1, i32 0, i32 0
  %_M_start = getelementptr inbounds nuw %"struct.std::_Vector_base<double, std::allocator<double>>::_Vector_impl_data", ptr %_M_impl2, i32 0, i32 0
  %1 = load ptr, ptr %_M_start, align 8, !tbaa !13
  %sub.ptr.lhs.cast = ptrtoint ptr %0 to i64
  %sub.ptr.rhs.cast = ptrtoint ptr %1 to i64
  %sub.ptr.sub = sub i64 %sub.ptr.lhs.cast, %sub.ptr.rhs.cast
  %sub.ptr.div = sdiv exact i64 %sub.ptr.sub, 8
  ret i64 %sub.ptr.div
}

; Function Attrs: mustprogress nounwind uwtable
define linkonce_odr noundef nonnull align 8 dereferenceable(8) ptr @_ZNSt6vectorIdSaIdEEixEm(ptr noundef nonnull align 8 dereferenceable(24) %this, i64 noundef %__n) #3 comdat align 2 {
entry:
  %this.addr = alloca ptr, align 8
  %__n.addr = alloca i64, align 8
  store ptr %this, ptr %this.addr, align 8, !tbaa !7
  store i64 %__n, ptr %__n.addr, align 8, !tbaa !11
  %this1 = load ptr, ptr %this.addr, align 8
  %_M_impl = getelementptr inbounds nuw %"struct.std::_Vector_base", ptr %this1, i32 0, i32 0
  %_M_start = getelementptr inbounds nuw %"struct.std::_Vector_base<double, std::allocator<double>>::_Vector_impl_data", ptr %_M_impl, i32 0, i32 0
  %0 = load ptr, ptr %_M_start, align 8, !tbaa !13
  %1 = load i64, ptr %__n.addr, align 8, !tbaa !11
  %add.ptr = getelementptr inbounds nuw double, ptr %0, i64 %1
  ret ptr %add.ptr
}

; Function Attrs: mustprogress uwtable
define noundef double @_ZN8QuantLib8LossDist28binomialProbabilityOfNEventsEiRSt6vectorIdSaIdEE(i32 noundef %n, ptr noundef nonnull align 8 dereferenceable(24) %p) #2 align 2 {
entry:
  %n.addr = alloca i32, align 4
  %p.addr = alloca ptr, align 8
  %binomial = alloca %"class.QuantLib::BinomialDistribution", align 8
  store i32 %n, ptr %n.addr, align 4, !tbaa !3
  store ptr %p, ptr %p.addr, align 8, !tbaa !7
  call void @llvm.lifetime.start.p0(i64 24, ptr %binomial) #15
  %0 = load ptr, ptr %p.addr, align 8, !tbaa !7
  %call = call noundef nonnull align 8 dereferenceable(8) ptr @_ZNSt6vectorIdSaIdEEixEm(ptr noundef nonnull align 8 dereferenceable(24) %0, i64 noundef 0) #15
  %1 = load double, ptr %call, align 8, !tbaa !9
  %2 = load ptr, ptr %p.addr, align 8, !tbaa !7
  %call1 = call noundef i64 @_ZNKSt6vectorIdSaIdEE4sizeEv(ptr noundef nonnull align 8 dereferenceable(24) %2) #15
  call void @_ZN8QuantLib20BinomialDistributionC2Edm(ptr noundef nonnull align 8 dereferenceable(24) %binomial, double noundef %1, i64 noundef %call1)
  %3 = load i32, ptr %n.addr, align 4, !tbaa !3
  %conv = sext i32 %3 to i64
  %call2 = call noundef double @_ZNK8QuantLib20BinomialDistributionclEm(ptr noundef nonnull align 8 dereferenceable(24) %binomial, i64 noundef %conv)
  call void @llvm.lifetime.end.p0(i64 24, ptr %binomial) #15
  ret double %call2
}