; Function Attrs: mustprogress uwtable
define noundef double @_ZN8QuantLib8LossDist28binomialProbabilityOfNEventsEiRSt6vectorIdSaIdEE(i32 noundef %n, ptr nocapture noundef nonnull readonly align 8 dereferenceable(24) %p) local_unnamed_addr #3 align 2 {
entry:
  %binomial = alloca %"class.QuantLib::BinomialDistribution", align 8
  call void @llvm.lifetime.start.p0(i64 24, ptr nonnull %binomial) #20
  %0 = load ptr, ptr %p, align 8, !tbaa !3
  %1 = load double, ptr %0, align 8, !tbaa !8
  %_M_finish.i = getelementptr inbounds nuw i8, ptr %p, i64 8
  %2 = load ptr, ptr %_M_finish.i, align 8, !tbaa !10
  %sub.ptr.lhs.cast.i = ptrtoint ptr %2 to i64
  %sub.ptr.rhs.cast.i = ptrtoint ptr %0 to i64
  %sub.ptr.sub.i = sub i64 %sub.ptr.lhs.cast.i, %sub.ptr.rhs.cast.i
  %sub.ptr.div.i = ashr exact i64 %sub.ptr.sub.i, 3
  call void @_ZN8QuantLib20BinomialDistributionC2Edm(ptr noundef nonnull align 8 dereferenceable(24) %binomial, double noundef %1, i64 noundef %sub.ptr.div.i)
  %conv = sext i32 %n to i64
  %3 = load i64, ptr %binomial, align 8, !tbaa !11
  %cmp.i = icmp ult i64 %3, %conv
  br i1 %cmp.i, label %_ZNK8QuantLib20BinomialDistributionclEm.exit, label %if.end.i

if.end.i:                                         ; preds = %entry
  %logP_.i = getelementptr inbounds nuw i8, ptr %binomial, i64 8
  %4 = load double, ptr %logP_.i, align 8, !tbaa !14
  %cmp2.i = fcmp oeq double %4, 0.000000e+00
  br i1 %cmp2.i, label %if.then3.i, label %if.else.i

if.then3.i:                                       ; preds = %if.end.i
  %cmp5.i = icmp eq i64 %3, %conv
  %cond.i = select i1 %cmp5.i, double 1.000000e+00, double 0.000000e+00
  br label %_ZNK8QuantLib20BinomialDistributionclEm.exit

if.else.i:                                        ; preds = %if.end.i
  %logOneMinusP_.i = getelementptr inbounds nuw i8, ptr %binomial, i64 16
  %5 = load double, ptr %logOneMinusP_.i, align 8, !tbaa !15
  %cmp6.i = fcmp oeq double %5, 0.000000e+00
  br i1 %cmp6.i, label %if.then7.i, label %if.else10.i

if.then7.i:                                       ; preds = %if.else.i
  %cmp8.i = icmp eq i32 %n, 0
  %cond9.i = select i1 %cmp8.i, double 1.000000e+00, double 0.000000e+00
  br label %_ZNK8QuantLib20BinomialDistributionclEm.exit

if.else10.i:                                      ; preds = %if.else.i
  %call.i = call noundef double @_ZN8QuantLib21binomialCoefficientLnEmm(i64 noundef %3, i64 noundef %conv)
  %conv.i = uitofp i64 %conv to double
  %6 = load double, ptr %logP_.i, align 8, !tbaa !14
  %7 = call double @llvm.fmuladd.f64(double %conv.i, double %6, double %call.i)
  %8 = load i64, ptr %binomial, align 8, !tbaa !11
  %sub.i = sub i64 %8, %conv
  %conv14.i = uitofp i64 %sub.i to double
  %9 = load double, ptr %logOneMinusP_.i, align 8, !tbaa !15
  %10 = call double @llvm.fmuladd.f64(double %conv14.i, double %9, double %7)
  %call16.i = call double @exp(double noundef %10) #20, !tbaa !16
  br label %_ZNK8QuantLib20BinomialDistributionclEm.exit

_ZNK8QuantLib20BinomialDistributionclEm.exit:     ; preds = %entry, %if.then3.i, %if.then7.i, %if.else10.i
  %retval.0.i = phi double [ %cond.i, %if.then3.i ], [ %cond9.i, %if.then7.i ], [ %call16.i, %if.else10.i ], [ 0.000000e+00, %entry ]
  call void @llvm.lifetime.end.p0(i64 24, ptr nonnull %binomial) #20
  ret double %retval.0.i
}